BL51 BANKED LINKER/LOCATER V6.22.2.0                                                    10/17/2025  22:39:09  PAGE 1


BL51 BANKED LINKER/LOCATER V6.22.2.0, INVOKED BY:
D:\KEIL_V5\C51\BIN\BL51.EXE .\Objects\main.obj, .\Objects\DS1302.obj, .\Objects\Timer0.obj, .\Objects\AT24C02.obj, .\Obj
>> ects\I2C.obj, .\Objects\lcd12864.obj, .\Objects\MatrixKey.obj, .\Objects\DS18B20.obj, .\Objects\OneWire.obj, .\Object
>> s\Key.obj, .\Objects\Delay.obj, .\Objects\Buzzer.obj TO .\Objects\Project PRINT (.\Listings\Project.m51) RAMSIZE (256
>> ) DISABLEWARNING (16)


MEMORY MODEL: SMALL WITH FLOATING POINT ARITHMETIC


INPUT MODULES INCLUDED:
  .\Objects\main.obj (MAIN)
  .\Objects\DS1302.obj (DS1302)
  .\Objects\Timer0.obj (TIMER0)
  .\Objects\AT24C02.obj (AT24C02)
  .\Objects\I2C.obj (I2C)
  .\Objects\lcd12864.obj (LCD12864)
  .\Objects\MatrixKey.obj (MATRIXKEY)
  .\Objects\DS18B20.obj (DS18B20)
  .\Objects\OneWire.obj (ONEWIRE)
  .\Objects\Key.obj (KEY)
  .\Objects\Delay.obj (DELAY)
  .\Objects\Buzzer.obj (BUZZER)
  D:\KEIL_V5\C51\LIB\C51FPS.LIB (?C?FPDIV)
  D:\KEIL_V5\C51\LIB\C51FPS.LIB (?C?FCAST)
  D:\KEIL_V5\C51\LIB\C51FPS.LIB (?C?CASTF)
  D:\KEIL_V5\C51\LIB\C51FPS.LIB (?C?FPGETOPN)
  D:\KEIL_V5\C51\LIB\C51S.LIB (?C_STARTUP)
  D:\KEIL_V5\C51\LIB\C51S.LIB (?C?SCDIV)
  D:\KEIL_V5\C51\LIB\C51S.LIB (?C?CLDOPTR)
  D:\KEIL_V5\C51\LIB\C51S.LIB (?C?CSTPTR)
  D:\KEIL_V5\C51\LIB\C51S.LIB (?C?CSTOPTR)
  D:\KEIL_V5\C51\LIB\C51S.LIB (?C?IMUL)
  D:\KEIL_V5\C51\LIB\C51S.LIB (?C?UIDIV)
  D:\KEIL_V5\C51\LIB\C51S.LIB (?C?SIDIV)
  D:\KEIL_V5\C51\LIB\C51S.LIB (?C?LNEG)
  D:\KEIL_V5\C51\LIB\C51S.LIB (?C?ULSHR)
  D:\KEIL_V5\C51\LIB\C51S.LIB (?C?LLDCODE)
  D:\KEIL_V5\C51\LIB\C51S.LIB (?C_INIT)


LINK MAP OF MODULE:  .\Objects\Project (MAIN)


            TYPE    BASE      LENGTH    RELOCATION   SEGMENT NAME
            -----------------------------------------------------

            * * * * * * *   D A T A   M E M O R Y   * * * * * * *
            REG     0000H     0008H     ABSOLUTE     "REG BANK 0"
            DATA    0008H     0007H     UNIT         ?DT?DS1302
            DATA    000FH     0003H     UNIT         ?DT?_AT24C02_WRITEBYTE?AT24C02
            DATA    0012H     0002H     UNIT         ?DT?_AT24C02_READBYTE?AT24C02
            DATA    0014H     0001H     UNIT         ?DT?KEY?KEY
                    0015H     000BH                  *** GAP ***
            BIT     0020H.0   0000H.1   UNIT         ?BI?MAIN
                    0020H.1   0000H.7                *** GAP ***
            DATA    0021H     002DH     UNIT         ?DT?MAIN
            DATA    004EH     0028H     UNIT         _DATA_GROUP_
BL51 BANKED LINKER/LOCATER V6.22.2.0                                                  10/17/2025  22:39:09  PAGE 2


            IDATA   0076H     0001H     UNIT         ?STACK

            * * * * * * *   C O D E   M E M O R Y   * * * * * * *
            CODE    0000H     0003H     ABSOLUTE     
            CODE    0003H     0007H     UNIT         ?PR?I2C_STOP?I2C
                    000AH     0001H                  *** GAP ***
            CODE    000BH     0003H     ABSOLUTE     
            CODE    000EH     02CEH     UNIT         ?PR?TIMESET?MAIN
            CODE    02DCH     02B0H     UNIT         ?C?LIB_CODE
            CODE    058CH     02A0H     UNIT         ?PR?_SOLARTOLUNAR?MAIN
            CODE    082CH     01EDH     UNIT         ?PR?_INTTOSTR?LCD12864
            CODE    0A19H     01A0H     UNIT         ?PR?ALARM_CLOCK?MAIN
            CODE    0BB9H     0189H     UNIT         ?PR?MATRIXKEY?MATRIXKEY
            CODE    0D42H     0184H     UNIT         ?PR?DS1302_SETTIME?DS1302
            CODE    0EC6H     0175H     UNIT         ?PR?MAIN?MAIN
            CODE    103BH     00A1H     UNIT         ?PR?_CALCULATEWEEKDAY?MAIN
            CODE    10DCH     008DH     UNIT         ?PR?DS1302_READTIME?DS1302
            CODE    1169H     008CH     UNIT         ?C_C51STARTUP
            CODE    11F5H     0078H     UNIT         ?PR?TIMER0_ROUTINE?MAIN
            CODE    126DH     0063H     UNIT         ?PR?_INTTOSTR2DIGIT?LCD12864
            CODE    12D0H     0062H     UNIT         ?PR?TIMESHOW?MAIN
            CODE    1332H     0061H     UNIT         ?PR?KEY?KEY
            CODE    1393H     005FH     UNIT         ?PR?_LCD12864_SETWINDOW?LCD12864
            CODE    13F2H     005CH     UNIT         ?PR?_DS1302_WRITEBYTE?DS1302
            CODE    144EH     0059H     UNIT         ?PR?_DS1302_READBYTE?DS1302
            CODE    14A7H     0057H     UNIT         ?C_INITSEG
            CODE    14FEH     0051H     UNIT         ?PR?_DISPLAYLUNAR?MAIN
            CODE    154FH     0048H     UNIT         ?PR?_GETSOLARMONTHDAYS?MAIN
            CODE    1597H     003FH     UNIT         ?CO?MAIN
            CODE    15D6H     0030H     UNIT         ?PR?_AT24C02_READBYTE?AT24C02
            CODE    1606H     002EH     UNIT         ?PR?_LCD12864_DELAY1MS?LCD12864
            CODE    1634H     002BH     UNIT         ?PR?DS18B20_READT?DS18B20
            CODE    165FH     0029H     UNIT         ?PR?_I2C_SENDBYTE?I2C
            CODE    1688H     0024H     UNIT         ?PR?_AT24C02_WRITEBYTE?AT24C02
            CODE    16ACH     0024H     UNIT         ?PR?LCD12864_BUSY?LCD12864
            CODE    16D0H     0024H     UNIT         ?PR?_LCD12864_SHOWNUMBER?LCD12864
            CODE    16F4H     0022H     UNIT         ?PR?_BUZZER_TIME?BUZZER
            CODE    1716H     0020H     UNIT         ?PR?_LCD12864_WRITECMD?LCD12864
            CODE    1736H     0020H     UNIT         ?PR?_LCD12864_WRITEDATA?LCD12864
            CODE    1756H     001EH     UNIT         ?PR?I2C_RECEIVEBYTE?I2C
            CODE    1774H     001EH     UNIT         ?PR?_LCD12864_SHOW2DIGITNUMBER?LCD12864
            CODE    1792H     001EH     UNIT         ?PR?ONEWIRE_INIT?ONEWIRE
            CODE    17B0H     001DH     UNIT         ?PR?ONEWIRE_RECEIVEBYTE?ONEWIRE
            CODE    17CDH     001CH     UNIT         ?PR?ONEWIRE_RECEIVEBIT?ONEWIRE
            CODE    17E9H     0019H     UNIT         ?PR?_ONEWIRE_SENDBYTE?ONEWIRE
            CODE    1802H     0017H     UNIT         ?PR?TIMER0INIT?TIMER0
            CODE    1819H     0016H     UNIT         ?PR?_ONEWIRE_SENDBIT?ONEWIRE
            CODE    182FH     0015H     UNIT         ?PR?_DELAY?DELAY
            CODE    1844H     0014H     UNIT         ?PR?_CELSIUSTOFAHRENHEIT?MAIN
            CODE    1858H     0013H     UNIT         ?PR?LCD12864_INIT?LCD12864
            CODE    186BH     000DH     UNIT         ?PR?DS18B20_CONVERTT?DS18B20
            CODE    1878H     000CH     UNIT         ?PR?I2C_RECEIVEACK?I2C
            CODE    1884H     000AH     UNIT         ?PR?_I2C_SENDACK?I2C
            CODE    188EH     0009H     UNIT         ?PR?I2C_START?I2C
            CODE    1897H     0006H     UNIT         ?PR?BUZZER_DELAY500US?BUZZER
            CODE    189DH     0005H     UNIT         ?PR?DS1302_INIT?DS1302

BL51 BANKED LINKER/LOCATER V6.22.2.0                                                  10/17/2025  22:39:09  PAGE 3




OVERLAY MAP OF MODULE:   .\Objects\Project (MAIN)


SEGMENT                                           DATA_GROUP 
  +--> CALLED SEGMENT                           START    LENGTH
---------------------------------------------------------------
?C_C51STARTUP                                   -----    -----
  +--> ?PR?MAIN?MAIN
  +--> ?C_INITSEG

?PR?MAIN?MAIN                                   -----    -----
  +--> ?PR?DS18B20_CONVERTT?DS18B20
  +--> ?PR?_DELAY?DELAY
  +--> ?PR?DS1302_INIT?DS1302
  +--> ?PR?LCD12864_INIT?LCD12864
  +--> ?PR?TIMER0INIT?TIMER0
  +--> ?PR?DS1302_READTIME?DS1302
  +--> ?PR?DS1302_SETTIME?DS1302
  +--> ?PR?_BUZZER_TIME?BUZZER
  +--> ?PR?_LCD12864_SETWINDOW?LCD12864
  +--> ?CO?MAIN
  +--> ?PR?DS18B20_READT?DS18B20
  +--> ?PR?_LCD12864_SHOWNUMBER?LCD12864
  +--> ?PR?MATRIXKEY?MATRIXKEY
  +--> ?PR?_CALCULATEWEEKDAY?MAIN
  +--> ?PR?_DISPLAYLUNAR?MAIN
  +--> ?PR?TIMESHOW?MAIN
  +--> ?PR?TIMESET?MAIN
  +--> ?PR?ALARM_CLOCK?MAIN

?PR?DS18B20_CONVERTT?DS18B20                    -----    -----
  +--> ?PR?ONEWIRE_INIT?ONEWIRE
  +--> ?PR?_ONEWIRE_SENDBYTE?ONEWIRE

?PR?_ONEWIRE_SENDBYTE?ONEWIRE                   -----    -----
  +--> ?PR?_ONEWIRE_SENDBIT?ONEWIRE

?PR?LCD12864_INIT?LCD12864                      -----    -----
  +--> ?PR?_LCD12864_WRITECMD?LCD12864

?PR?_LCD12864_WRITECMD?LCD12864                 -----    -----
  +--> ?PR?LCD12864_BUSY?LCD12864
  +--> ?PR?_LCD12864_DELAY1MS?LCD12864

?PR?LCD12864_BUSY?LCD12864                      -----    -----
  +--> ?PR?_LCD12864_DELAY1MS?LCD12864

?PR?DS1302_READTIME?DS1302                      -----    -----
  +--> ?PR?_DS1302_READBYTE?DS1302

?PR?_DS1302_READBYTE?DS1302                     004EH    0002H
  +--> ?PR?_LCD12864_WRITECMD?LCD12864

?PR?DS1302_SETTIME?DS1302                       -----    -----
  +--> ?PR?_LCD12864_WRITECMD?LCD12864
BL51 BANKED LINKER/LOCATER V6.22.2.0                                                  10/17/2025  22:39:09  PAGE 4


  +--> ?PR?_DS1302_WRITEBYTE?DS1302

?PR?_DS1302_WRITEBYTE?DS1302                    004EH    0002H

?PR?_BUZZER_TIME?BUZZER                         -----    -----
  +--> ?PR?BUZZER_DELAY500US?BUZZER

?PR?_LCD12864_SETWINDOW?LCD12864                0064H    0006H
  +--> ?PR?_LCD12864_WRITECMD?LCD12864
  +--> ?PR?_LCD12864_WRITEDATA?LCD12864

?PR?_LCD12864_WRITEDATA?LCD12864                -----    -----
  +--> ?PR?LCD12864_BUSY?LCD12864
  +--> ?PR?_LCD12864_DELAY1MS?LCD12864

?PR?DS18B20_READT?DS18B20                       004EH    0001H
  +--> ?PR?ONEWIRE_INIT?ONEWIRE
  +--> ?PR?_ONEWIRE_SENDBYTE?ONEWIRE
  +--> ?PR?ONEWIRE_RECEIVEBYTE?ONEWIRE

?PR?ONEWIRE_RECEIVEBYTE?ONEWIRE                 -----    -----
  +--> ?PR?ONEWIRE_RECEIVEBIT?ONEWIRE

?PR?_LCD12864_SHOWNUMBER?LCD12864               0052H    0012H
  +--> ?PR?_INTTOSTR?LCD12864
  +--> ?PR?_LCD12864_SETWINDOW?LCD12864

?PR?_INTTOSTR?LCD12864                          0064H    0012H

?PR?MATRIXKEY?MATRIXKEY                         004EH    0001H
  +--> ?PR?_DELAY?DELAY

?PR?_CALCULATEWEEKDAY?MAIN                      004EH    0001H

?PR?_DISPLAYLUNAR?MAIN                          004EH    0004H
  +--> ?PR?_SOLARTOLUNAR?MAIN
  +--> ?PR?_LCD12864_SHOWNUMBER?LCD12864
  +--> ?CO?MAIN
  +--> ?PR?_LCD12864_SETWINDOW?LCD12864

?PR?_SOLARTOLUNAR?MAIN                          0052H    0017H
  +--> ?CO?MAIN
  +--> ?PR?_GETSOLARMONTHDAYS?MAIN

?PR?TIMESHOW?MAIN                               -----    -----
  +--> ?PR?DS1302_READTIME?DS1302
  +--> ?PR?_LCD12864_SHOWNUMBER?LCD12864
  +--> ?PR?_LCD12864_SHOW2DIGITNUMBER?LCD12864

?PR?_LCD12864_SHOW2DIGITNUMBER?LCD12864         004EH    0005H
  +--> ?PR?_INTTOSTR2DIGIT?LCD12864
  +--> ?PR?_LCD12864_SETWINDOW?LCD12864

?PR?_INTTOSTR2DIGIT?LCD12864                    0053H    0005H

?PR?TIMESET?MAIN                                -----    -----
  +--> ?PR?_BUZZER_TIME?BUZZER
BL51 BANKED LINKER/LOCATER V6.22.2.0                                                  10/17/2025  22:39:09  PAGE 5


  +--> ?CO?MAIN
  +--> ?PR?_LCD12864_SETWINDOW?LCD12864
  +--> ?PR?_LCD12864_SHOWNUMBER?LCD12864

?PR?ALARM_CLOCK?MAIN                            -----    -----
  +--> ?PR?DS1302_SETTIME?DS1302
  +--> ?PR?_BUZZER_TIME?BUZZER
  +--> ?CO?MAIN
  +--> ?PR?_LCD12864_SETWINDOW?LCD12864
  +--> ?PR?_LCD12864_SHOWNUMBER?LCD12864



SYMBOL TABLE OF MODULE:  .\Objects\Project (MAIN)

  VALUE           TYPE          NAME
  ----------------------------------

  -------         MODULE        MAIN
  C:0000H         SYMBOL        _ICE_DUMMY_
  C:11F5H         PUBLIC        Timer0_Routine
  D:0090H         PUBLIC        P1
  D:00A0H         PUBLIC        P2
  D:00B0H         PUBLIC        P3
  B:0090H.5       PUBLIC        Buzzer
  D:0027H         PUBLIC        Clock_sec
  D:0028H         PUBLIC        Week
  C:15AAH         PUBLIC        lunar_table
  D:0029H         PUBLIC        Day_Temp
  D:002AH         PUBLIC        Hour_Temp
  D:002BH         PUBLIC        Min_Temp
  D:002CH         PUBLIC        TimeSetSelect
  D:002DH         PUBLIC        MODE
  D:002EH         PUBLIC        TR
  C:0EC6H         PUBLIC        main
  C:1844H         PUBLIC        _CelsiusToFahrenheit
  D:002FH         PUBLIC        TimeSetFlashFlag
  B:0020H.0       PUBLIC        BuzzerStop
  D:0030H         PUBLIC        fahrenhei
  D:0032H         PUBLIC        year
  D:0035H         PUBLIC        Temp_Str
  D:0036H         PUBLIC        Br
  C:12D0H         PUBLIC        TimeShow
  D:0037H         PUBLIC        sec_Temp
  C:000EH         PUBLIC        TimeSet
  D:0038H         PUBLIC        day
  C:154FH         PUBLIC        _GetSolarMonthDays
  D:003BH         PUBLIC        min
  D:003EH         PUBLIC        wen
  D:008CH         PUBLIC        TH0
  C:058CH         PUBLIC        _SolarToLunar
  D:008AH         PUBLIC        TL0
  D:0041H         PUBLIC        T
  D:0042H         PUBLIC        run
  D:0045H         PUBLIC        BuzzerR
  D:0046H         PUBLIC        du
  D:0049H         PUBLIC        KeyNum
BL51 BANKED LINKER/LOCATER V6.22.2.0                                                  10/17/2025  22:39:09  PAGE 6


  C:0A19H         PUBLIC        Alarm_clock
  C:14FEH         PUBLIC        _DisplayLunar
  D:004AH         PUBLIC        Clock_Time
  C:103BH         PUBLIC        _CalculateWeekday
  D:004BH         PUBLIC        Clock_Day
  D:004CH         PUBLIC        Clock_Hour
  D:004DH         PUBLIC        Clock_Min
  -------         PROC          TIMESHOW
  C:12D0H         LINE#         90
  C:12D0H         LINE#         91
  C:12D0H         LINE#         92
  C:12D3H         LINE#         93
  C:12E0H         LINE#         94
  C:12EEH         LINE#         95
  C:12FAH         LINE#         96
  C:1308H         LINE#         97
  C:1316H         LINE#         98
  C:1324H         LINE#         99
  -------         ENDPROC       TIMESHOW
  -------         PROC          TIMESET
  C:000EH         LINE#         102
  C:000EH         LINE#         103
  C:000EH         LINE#         104
  C:0013H         LINE#         105
  C:0013H         LINE#         106
  C:001AH         LINE#         107
  C:001CH         LINE#         108
  C:0025H         LINE#         109
  C:0025H         LINE#         110
  C:002EH         LINE#         111
  C:002EH         LINE#         112
  C:0034H         LINE#         113
  C:003AH         LINE#         114
  C:0046H         LINE#         115
  C:0052H         LINE#         116
  C:007BH         LINE#         118
  C:007BH         LINE#         119
  C:0084H         LINE#         120
  C:0086H         LINE#         121
  C:009DH         LINE#         122
  C:009DH         LINE#         123
  C:00A6H         LINE#         124
  C:00A8H         LINE#         125
  C:00ADH         LINE#         126
  C:00ADH         LINE#         127
  C:00BAH         LINE#         128
  C:00BAH         LINE#         129
  C:00C3H         LINE#         130
  C:00C5H         LINE#         132
  C:00C5H         LINE#         133
  C:00D1H         LINE#         134
  C:00D1H         LINE#         135
  C:00D1H         LINE#         136
  C:00DDH         LINE#         137
  C:00E9H         LINE#         138
  C:00F5H         LINE#         139
  C:00F5H         LINE#         140
BL51 BANKED LINKER/LOCATER V6.22.2.0                                                  10/17/2025  22:39:09  PAGE 7


  C:00FEH         LINE#         141
  C:00FEH         LINE#         142
  C:0104H         LINE#         143
  C:010AH         LINE#         144
  C:0116H         LINE#         145
  C:0122H         LINE#         146
  C:014BH         LINE#         148
  C:014BH         LINE#         149
  C:0157H         LINE#         150
  C:0160H         LINE#         151
  C:0162H         LINE#         152
  C:0179H         LINE#         153
  C:0179H         LINE#         154
  C:0185H         LINE#         155
  C:018EH         LINE#         156
  C:0190H         LINE#         157
  C:0196H         LINE#         158
  C:0196H         LINE#         159
  C:01A3H         LINE#         160
  C:01A3H         LINE#         161
  C:01AFH         LINE#         162
  C:01B8H         LINE#         163
  C:01BAH         LINE#         165
  C:01BAH         LINE#         166
  C:01C6H         LINE#         167
  C:01D2H         LINE#         168
  C:01D2H         LINE#         169
  C:01D2H         LINE#         170
  C:01DEH         LINE#         171
  C:01EAH         LINE#         172
  C:01F6H         LINE#         173
  C:01F6H         LINE#         175
  C:020DH         LINE#         176
  C:021AH         LINE#         177
  C:0233H         LINE#         178
  C:0241H         LINE#         179
  C:025AH         LINE#         180
  C:0268H         LINE#         181
  C:0281H         LINE#         182
  C:028FH         LINE#         183
  C:02A8H         LINE#         184
  C:02B6H         LINE#         185
  C:02CDH         LINE#         186
  C:02DBH         LINE#         187
  -------         ENDPROC       TIMESET
  -------         PROC          ALARM_CLOCK
  C:0A19H         LINE#         189
  C:0A19H         LINE#         190
  C:0A19H         LINE#         191
  C:0A1EH         LINE#         192
  C:0A1EH         LINE#         193
  C:0A21H         LINE#         194
  C:0A24H         LINE#         195
  C:0A27H         LINE#         196
  C:0A2AH         LINE#         197
  C:0A2DH         LINE#         198
  C:0A2DH         LINE#         200
BL51 BANKED LINKER/LOCATER V6.22.2.0                                                  10/17/2025  22:39:09  PAGE 8


  C:0A34H         LINE#         201
  C:0A34H         LINE#         203
  C:0A39H         LINE#         204
  C:0A39H         LINE#         206
  C:0A3CH         LINE#         207
  C:0A3CH         LINE#         208
  C:0A41H         LINE#         209
  C:0A41H         LINE#         211
  C:0A44H         LINE#         212
  C:0A47H         LINE#         213
  C:0A4AH         LINE#         214
  C:0A4DH         LINE#         216
  C:0A50H         LINE#         217
  C:0A53H         LINE#         218
  C:0A56H         LINE#         219
  C:0A59H         LINE#         220
  C:0A5CH         LINE#         221
  C:0A5FH         LINE#         222
  C:0A5FH         LINE#         223
  C:0A64H         LINE#         224
  C:0A64H         LINE#         225
  C:0A6BH         LINE#         226
  C:0A6EH         LINE#         227
  C:0A70H         LINE#         228
  C:0A7CH         LINE#         229
  C:0A7CH         LINE#         230
  C:0A81H         LINE#         231
  C:0A81H         LINE#         232
  C:0A88H         LINE#         233
  C:0A8BH         LINE#         234
  C:0A8DH         LINE#         235
  C:0A99H         LINE#         236
  C:0A99H         LINE#         237
  C:0A9EH         LINE#         238
  C:0A9EH         LINE#         239
  C:0AA5H         LINE#         240
  C:0AA8H         LINE#         241
  C:0AAAH         LINE#         242
  C:0AB6H         LINE#         243
  C:0AB6H         LINE#         244
  C:0ABBH         LINE#         245
  C:0ABBH         LINE#         246
  C:0AC2H         LINE#         247
  C:0AC5H         LINE#         248
  C:0AC7H         LINE#         249
  C:0AD3H         LINE#         250
  C:0AD3H         LINE#         251
  C:0AD3H         LINE#         253
  C:0AEAH         LINE#         254
  C:0AF7H         LINE#         255
  C:0B10H         LINE#         256
  C:0B1EH         LINE#         257
  C:0B37H         LINE#         258
  C:0B45H         LINE#         259
  C:0B5EH         LINE#         260
  C:0B6CH         LINE#         261
  C:0B85H         LINE#         262
BL51 BANKED LINKER/LOCATER V6.22.2.0                                                  10/17/2025  22:39:09  PAGE 9


  C:0B93H         LINE#         263
  C:0BAAH         LINE#         264
  C:0BB8H         LINE#         265
  -------         ENDPROC       ALARM_CLOCK
  -------         PROC          _CALCULATEWEEKDAY
  D:0006H         SYMBOL        year
  D:0005H         SYMBOL        month
  D:0003H         SYMBOL        day
  -------         DO            
  D:0002H         SYMBOL        m
  D:0082H         SYMBOL        y
  D:004EH         SYMBOL        base
  D:0006H         SYMBOL        weekday
  -------         ENDDO         
  C:103BH         LINE#         269
  C:103BH         LINE#         270
  C:103BH         LINE#         271
  C:103DH         LINE#         272
  C:1041H         LINE#         277
  C:1047H         LINE#         278
  C:1047H         LINE#         279
  C:104BH         LINE#         280
  C:1055H         LINE#         281
  C:1055H         LINE#         283
  C:1070H         LINE#         286
  C:10BAH         LINE#         287
  C:10C3H         LINE#         290
  C:10D5H         LINE#         291
  C:10DBH         LINE#         293
  C:10DBH         LINE#         294
  -------         ENDPROC       _CALCULATEWEEKDAY
  -------         PROC          _CELSIUSTOFAHRENHEIT
  D:0006H         SYMBOL        celsius
  -------         DO            
  D:0006H         SYMBOL        fahrenheit
  -------         ENDDO         
  C:1844H         LINE#         296
  C:1844H         LINE#         297
  C:1844H         LINE#         299
  C:1857H         LINE#         300
  C:1857H         LINE#         301
  -------         ENDPROC       _CELSIUSTOFAHRENHEIT
  -------         PROC          _GETSOLARMONTHDAYS
  D:0082H         SYMBOL        year
  D:0003H         SYMBOL        month
  C:154FH         LINE#         304
  C:1555H         LINE#         305
  C:155AH         LINE#         306
  C:1579H         LINE#         307
  C:157CH         LINE#         308
  C:157FH         LINE#         309
  C:157FH         LINE#         312
  C:1591H         LINE#         313
  C:1594H         LINE#         314
  C:1596H         LINE#         315
  -------         ENDPROC       _GETSOLARMONTHDAYS
  -------         PROC          _SOLARTOLUNAR
BL51 BANKED LINKER/LOCATER V6.22.2.0                                                  10/17/2025  22:39:09  PAGE 10


  D:0052H         SYMBOL        syear
  D:0054H         SYMBOL        smonth
  D:0055H         SYMBOL        sday
  D:0056H         SYMBOL        result
  -------         DO            
  D:0059H         SYMBOL        lunarData
  D:005DH         SYMBOL        spring_month
  D:005EH         SYMBOL        spring_day
  D:005FH         SYMBOL        leap_month
  D:0060H         SYMBOL        month_info
  D:0062H         SYMBOL        days
  D:0064H         SYMBOL        tempDays
  D:0005H         SYMBOL        month_count
  D:0066H         SYMBOL        month_days
  D:0067H         SYMBOL        i
  -------         ENDDO         
  C:058CH         LINE#         318
  C:0594H         LINE#         319
  C:0594H         LINE#         326
  C:0599H         LINE#         327
  C:059DH         LINE#         333
  C:05A6H         LINE#         334
  C:05B2H         LINE#         335
  C:05B9H         LINE#         336
  C:05C0H         LINE#         339
  C:05DCH         LINE#         343
  C:0600H         LINE#         344
  C:0608H         LINE#         345
  C:0618H         LINE#         346
  C:0627H         LINE#         347
  C:0632H         LINE#         350
  C:0636H         LINE#         353
  C:0649H         LINE#         355
  C:0649H         LINE#         356
  C:0658H         LINE#         359
  C:066DH         LINE#         360
  C:0675H         LINE#         361
  C:0685H         LINE#         362
  C:0694H         LINE#         363
  C:069EH         LINE#         364
  C:06A2H         LINE#         365
  C:06A4H         LINE#         367
  C:06A4H         LINE#         368
  C:06B1H         LINE#         369
  C:06B1H         LINE#         373
  C:06B8H         LINE#         374
  C:06B8H         LINE#         376
  C:06D2H         LINE#         379
  C:06E9H         LINE#         380
  C:06E9H         LINE#         381
  C:06FCH         LINE#         382
  C:0706H         LINE#         385
  C:0711H         LINE#         386
  C:0713H         LINE#         387
  C:071CH         LINE#         388
  C:071CH         LINE#         390
  C:0728H         LINE#         391
BL51 BANKED LINKER/LOCATER V6.22.2.0                                                  10/17/2025  22:39:09  PAGE 11


  C:0728H         LINE#         393
  C:0728H         LINE#         397
  C:0728H         LINE#         400
  C:0734H         LINE#         403
  C:0739H         LINE#         404
  C:0745H         LINE#         407
  C:075BH         LINE#         408
  C:075BH         LINE#         410
  C:0780H         LINE#         412
  C:0796H         LINE#         413
  C:0796H         LINE#         415
  C:079AH         LINE#         416
  C:079AH         LINE#         417
  C:07B0H         LINE#         418
  C:07B0H         LINE#         419
  C:07B1H         LINE#         420
  C:07B1H         LINE#         421
  C:07B3H         LINE#         422
  C:07C4H         LINE#         423
  C:07C4H         LINE#         424
  C:07D2H         LINE#         425
  C:07D7H         LINE#         426
  C:07D9H         LINE#         428
  C:07D9H         LINE#         429
  C:07E7H         LINE#         430
  C:07EBH         LINE#         431
  C:07EBH         LINE#         432
  C:07EDH         LINE#         434
  C:07EDH         LINE#         435
  C:07FCH         LINE#         436
  C:0803H         LINE#         437
  C:0803H         LINE#         439
  C:0815H         LINE#         440
  C:0815H         LINE#         441
  C:0815H         LINE#         442
  C:0820H         LINE#         443
  C:082BH         LINE#         444
  -------         ENDPROC       _SOLARTOLUNAR
  -------         PROC          _DISPLAYLUNAR
  D:0006H         SYMBOL        year
  D:0005H         SYMBOL        month
  D:0003H         SYMBOL        day
  -------         DO            
  D:004EH         SYMBOL        lunar
  -------         ENDDO         
  C:14FEH         LINE#         447
  C:14FEH         LINE#         448
  C:14FEH         LINE#         450
  C:150AH         LINE#         453
  C:151AH         LINE#         455
  C:151EH         LINE#         456
  C:151EH         LINE#         457
  C:1524H         LINE#         458
  C:1526H         LINE#         460
  C:1526H         LINE#         461
  C:1533H         LINE#         462
  C:1533H         LINE#         463
BL51 BANKED LINKER/LOCATER V6.22.2.0                                                  10/17/2025  22:39:09  PAGE 12


  C:153FH         LINE#         464
  -------         ENDPROC       _DISPLAYLUNAR
  -------         PROC          MAIN
  C:0EC6H         LINE#         469
  C:0EC6H         LINE#         470
  C:0EC6H         LINE#         471
  C:0EC9H         LINE#         472
  C:0ED0H         LINE#         473
  C:0ED3H         LINE#         474
  C:0ED6H         LINE#         475
  C:0ED9H         LINE#         476
  C:0EDCH         LINE#         487
  C:0EDFH         LINE#         488
  C:0EE6H         LINE#         490
  C:0EF3H         LINE#         491
  C:0F00H         LINE#         492
  C:0F0DH         LINE#         493
  C:0F1AH         LINE#         495
  C:0F27H         LINE#         496
  C:0F34H         LINE#         497
  C:0F41H         LINE#         499
  C:0F4EH         LINE#         500
  C:0F5BH         LINE#         501
  C:0F68H         LINE#         502
  C:0F68H         LINE#         503
  C:0F68H         LINE#         504
  C:0F75H         LINE#         505
  C:0F78H         LINE#         506
  C:0F80H         LINE#         507
  C:0F8BH         LINE#         509
  C:0F90H         LINE#         510
  C:0FA0H         LINE#         512
  C:0FB6H         LINE#         513
  C:0FBBH         LINE#         514
  C:0FBBH         LINE#         515
  C:0FC2H         LINE#         516
  C:0FC4H         LINE#         517
  C:0FCFH         LINE#         518
  C:0FDAH         LINE#         519
  C:0FDAH         LINE#         520
  C:0FDFH         LINE#         521
  C:0FDFH         LINE#         522
  C:0FE6H         LINE#         523
  C:0FE8H         LINE#         524
  C:0FF1H         LINE#         525
  C:0FF1H         LINE#         526
  C:0FF1H         LINE#         527
  C:0FF6H         LINE#         528
  C:0FF6H         LINE#         529
  C:0FF9H         LINE#         530
  C:0FF9H         LINE#         531
  C:100DH         LINE#         532
  C:100DH         LINE#         533
  C:101AH         LINE#         534
  C:101AH         LINE#         535
  C:1029H         LINE#         536
  C:1029H         LINE#         537
BL51 BANKED LINKER/LOCATER V6.22.2.0                                                  10/17/2025  22:39:09  PAGE 13


  C:102FH         LINE#         538
  C:1035H         LINE#         539
  -------         ENDPROC       MAIN
  -------         PROC          TIMER0_ROUTINE
  -------         DO            
  D:0021H         SYMBOL        T0Count
  D:0023H         SYMBOL        T0Count0
  D:0025H         SYMBOL        T0Count1
  -------         ENDDO         
  C:11F5H         LINE#         551
  C:11FEH         LINE#         556
  C:1201H         LINE#         557
  C:1204H         LINE#         558
  C:120CH         LINE#         559
  C:1215H         LINE#         560
  C:1215H         LINE#         561
  C:121BH         LINE#         562
  C:1227H         LINE#         563
  C:1227H         LINE#         564
  C:122FH         LINE#         565
  C:123DH         LINE#         566
  C:123DH         LINE#         567
  C:1243H         LINE#         568
  C:1245H         LINE#         569
  C:1245H         LINE#         571
  C:1252H         LINE#         572
  C:125DH         LINE#         573
  C:125DH         LINE#         574
  C:1263H         LINE#         575
  C:1266H         LINE#         576
  C:1266H         LINE#         577
  -------         ENDPROC       TIMER0_ROUTINE
  -------         ENDMOD        MAIN

  -------         MODULE        DS1302
  C:0000H         SYMBOL        _ICE_DUMMY_
  C:0D42H         PUBLIC        DS1302_SetTime
  D:00A0H         PUBLIC        P2
  D:00B0H         PUBLIC        P3
  B:00B0H.0       PUBLIC        DS1302_CE
  C:10DCH         PUBLIC        DS1302_ReadTime
  D:0008H         PUBLIC        DS1302_Time
  C:144EH         PUBLIC        _DS1302_ReadByte
  C:189DH         PUBLIC        DS1302_Init
  B:00B0H.1       PUBLIC        DS1302_IO
  C:13F7H         PUBLIC        _DS1302_WriteByte
  B:00B0H.3       PUBLIC        DS1302_SCLK
  -------         PROC          DS1302_INIT
  C:189DH         LINE#         27
  C:189DH         LINE#         28
  C:189DH         LINE#         29
  C:189FH         LINE#         30
  C:18A1H         LINE#         31
  -------         ENDPROC       DS1302_INIT
  -------         PROC          L?0027
  -------         ENDPROC       L?0027
  -------         PROC          _DS1302_WRITEBYTE
BL51 BANKED LINKER/LOCATER V6.22.2.0                                                  10/17/2025  22:39:09  PAGE 14


  D:0003H         SYMBOL        Command
  D:004EH         SYMBOL        Data
  -------         DO            
  D:0005H         SYMBOL        i
  -------         ENDDO         
  C:13F7H         LINE#         39
  C:13FDH         LINE#         40
  C:13FDH         LINE#         42
  C:13FFH         LINE#         43
  C:1401H         LINE#         44
  C:1401H         LINE#         45
  C:141CH         LINE#         46
  C:141EH         LINE#         47
  C:1420H         LINE#         48
  C:1424H         LINE#         49
  C:1426H         LINE#         50
  C:1426H         LINE#         51
  C:1443H         LINE#         52
  C:1445H         LINE#         53
  C:1447H         LINE#         54
  C:144BH         LINE#         55
  C:144DH         LINE#         56
  -------         ENDPROC       _DS1302_WRITEBYTE
  -------         PROC          _DS1302_READBYTE
  D:004EH         SYMBOL        Command
  -------         DO            
  D:0005H         SYMBOL        i
  D:004FH         SYMBOL        Data
  -------         ENDDO         
  C:144EH         LINE#         63
  C:1450H         LINE#         64
  C:1450H         LINE#         65
  C:1453H         LINE#         66
  C:1458H         LINE#         67
  C:145BH         LINE#         68
  C:145DH         LINE#         69
  C:145FH         LINE#         70
  C:145FH         LINE#         71
  C:1479H         LINE#         72
  C:147BH         LINE#         73
  C:147DH         LINE#         74
  C:1481H         LINE#         75
  C:1483H         LINE#         76
  C:1483H         LINE#         77
  C:1485H         LINE#         78
  C:1487H         LINE#         79
  C:1497H         LINE#         80
  C:149BH         LINE#         81
  C:149DH         LINE#         82
  C:149FH         LINE#         83
  C:14A4H         LINE#         84
  C:14A6H         LINE#         85
  -------         ENDPROC       _DS1302_READBYTE
  -------         PROC          DS1302_SETTIME
  C:0D42H         LINE#         92
  C:0D42H         LINE#         93
  C:0D42H         LINE#         94
BL51 BANKED LINKER/LOCATER V6.22.2.0                                                  10/17/2025  22:39:09  PAGE 15


  C:0D47H         LINE#         95
  C:0D4FH         LINE#         96
  C:0D7FH         LINE#         97
  C:0DAFH         LINE#         98
  C:0DE4H         LINE#         99
  C:0E19H         LINE#         100
  C:0E4EH         LINE#         101
  C:0E83H         LINE#         102
  C:0EB8H         LINE#         103
  C:0EC1H         LINE#         104
  -------         ENDPROC       DS1302_SETTIME
  -------         PROC          DS1302_READTIME
  -------         DO            
  D:0007H         SYMBOL        Temp
  -------         ENDDO         
  C:10DCH         LINE#         112
  C:10DCH         LINE#         113
  C:10DCH         LINE#         115
  C:10E1H         LINE#         116
  C:10F0H         LINE#         117
  C:10F5H         LINE#         118
  C:1104H         LINE#         119
  C:1109H         LINE#         120
  C:1118H         LINE#         121
  C:111DH         LINE#         122
  C:112CH         LINE#         123
  C:1131H         LINE#         124
  C:1140H         LINE#         125
  C:1145H         LINE#         126
  C:1154H         LINE#         127
  C:1159H         LINE#         128
  C:1168H         LINE#         129
  -------         ENDPROC       DS1302_READTIME
  -------         ENDMOD        DS1302

  -------         MODULE        TIMER0
  C:0000H         SYMBOL        _ICE_DUMMY_
  B:00A8H.7       PUBLIC        EA
  D:0089H         PUBLIC        TMOD
  B:00A8H.1       PUBLIC        ET0
  B:0088H.5       PUBLIC        TF0
  C:1802H         PUBLIC        Timer0Init
  D:008CH         PUBLIC        TH0
  D:008AH         PUBLIC        TL0
  B:00B8H.1       PUBLIC        PT0
  B:0088H.4       PUBLIC        TR0
  -------         PROC          TIMER0INIT
  C:1802H         LINE#         8
  C:1802H         LINE#         9
  C:1802H         LINE#         10
  C:1805H         LINE#         11
  C:1808H         LINE#         12
  C:180BH         LINE#         13
  C:180EH         LINE#         14
  C:1810H         LINE#         15
  C:1812H         LINE#         16
  C:1814H         LINE#         17
BL51 BANKED LINKER/LOCATER V6.22.2.0                                                  10/17/2025  22:39:09  PAGE 16


  C:1816H         LINE#         18
  C:1818H         LINE#         19
  -------         ENDPROC       TIMER0INIT
  -------         ENDMOD        TIMER0

  -------         MODULE        AT24C02
  C:0000H         SYMBOL        _ICE_DUMMY_
  C:15D6H         PUBLIC        _AT24C02_ReadByte
  C:1688H         PUBLIC        _AT24C02_WriteByte
  -------         PROC          _AT24C02_WRITEBYTE
  D:000FH         SYMBOL        WordAddress
  D:0010H         SYMBOL        Data
  C:1688H         LINE#         12
  C:168EH         LINE#         13
  C:168EH         LINE#         14
  C:1691H         LINE#         15
  C:1696H         LINE#         16
  C:1699H         LINE#         17
  C:169EH         LINE#         18
  C:16A1H         LINE#         19
  C:16A6H         LINE#         20
  C:16A9H         LINE#         21
  -------         ENDPROC       _AT24C02_WRITEBYTE
  -------         PROC          _AT24C02_READBYTE
  D:0012H         SYMBOL        WordAddress
  -------         DO            
  D:0013H         SYMBOL        Data
  -------         ENDDO         
  C:15D6H         LINE#         29
  C:15D8H         LINE#         30
  C:15D8H         LINE#         32
  C:15DBH         LINE#         33
  C:15E0H         LINE#         34
  C:15E3H         LINE#         35
  C:15E8H         LINE#         36
  C:15EBH         LINE#         37
  C:15EEH         LINE#         38
  C:15F3H         LINE#         39
  C:15F6H         LINE#         40
  C:15FBH         LINE#         41
  C:1600H         LINE#         42
  C:1603H         LINE#         43
  C:1605H         LINE#         44
  -------         ENDPROC       _AT24C02_READBYTE
  -------         ENDMOD        AT24C02

  -------         MODULE        I2C
  C:0000H         SYMBOL        _ICE_DUMMY_
  B:00A0H.1       PUBLIC        I2C_SCL
  D:00A0H         PUBLIC        P2
  C:188EH         PUBLIC        I2C_Start
  C:1884H         PUBLIC        _I2C_SendAck
  C:165FH         PUBLIC        _I2C_SendByte
  C:0003H         PUBLIC        I2C_Stop
  C:1878H         PUBLIC        I2C_ReceiveAck
  B:00A0H.0       PUBLIC        I2C_SDA
  C:1756H         PUBLIC        I2C_ReceiveByte
BL51 BANKED LINKER/LOCATER V6.22.2.0                                                  10/17/2025  22:39:09  PAGE 17


  -------         PROC          I2C_START
  C:188EH         LINE#         11
  C:188EH         LINE#         12
  C:188EH         LINE#         13
  C:1890H         LINE#         14
  C:1892H         LINE#         15
  C:1894H         LINE#         16
  C:1896H         LINE#         17
  -------         ENDPROC       I2C_START
  -------         PROC          I2C_STOP
  C:0003H         LINE#         24
  C:0003H         LINE#         25
  C:0003H         LINE#         26
  C:0005H         LINE#         27
  C:0007H         LINE#         28
  C:0009H         LINE#         29
  -------         ENDPROC       I2C_STOP
  -------         PROC          _I2C_SENDBYTE
  D:0005H         SYMBOL        Byte
  -------         DO            
  D:0003H         SYMBOL        i
  -------         ENDDO         
  C:165FH         LINE#         36
  C:1661H         LINE#         37
  C:1661H         LINE#         39
  C:1663H         LINE#         40
  C:1663H         LINE#         41
  C:167FH         LINE#         42
  C:1681H         LINE#         43
  C:1683H         LINE#         44
  C:1687H         LINE#         45
  -------         ENDPROC       _I2C_SENDBYTE
  -------         PROC          I2C_RECEIVEBYTE
  -------         DO            
  D:0006H         SYMBOL        i
  D:0007H         SYMBOL        Byte
  -------         ENDDO         
  C:1756H         LINE#         52
  C:1756H         LINE#         53
  C:1756H         LINE#         54
  C:1758H         LINE#         55
  C:175AH         LINE#         56
  C:175BH         LINE#         57
  C:175BH         LINE#         58
  C:175DH         LINE#         59
  C:176DH         LINE#         60
  C:176FH         LINE#         61
  C:1773H         LINE#         62
  C:1773H         LINE#         63
  -------         ENDPROC       I2C_RECEIVEBYTE
  -------         PROC          _I2C_SENDACK
  D:0007H         SYMBOL        AckBit
  C:1884H         LINE#         70
  C:1884H         LINE#         71
  C:1884H         LINE#         72
  C:1889H         LINE#         73
  C:188BH         LINE#         74
BL51 BANKED LINKER/LOCATER V6.22.2.0                                                  10/17/2025  22:39:09  PAGE 18


  C:188DH         LINE#         75
  -------         ENDPROC       _I2C_SENDACK
  -------         PROC          I2C_RECEIVEACK
  -------         DO            
  D:0007H         SYMBOL        AckBit
  -------         ENDDO         
  C:1878H         LINE#         82
  C:1878H         LINE#         83
  C:1878H         LINE#         85
  C:187AH         LINE#         86
  C:187CH         LINE#         87
  C:1881H         LINE#         88
  C:1883H         LINE#         89
  C:1883H         LINE#         90
  -------         ENDPROC       I2C_RECEIVEACK
  -------         ENDMOD        I2C

  -------         MODULE        LCD12864
  C:0000H         SYMBOL        _ICE_DUMMY_
  D:0080H         PUBLIC        P0
  D:00A0H         PUBLIC        P2
  D:00B0H         PUBLIC        P3
  B:00B0H.5       PUBLIC        LCD12864_PSB
  C:082CH         PUBLIC        _IntToStr
  B:00A0H.4       PUBLIC        LCD12864_RST
  C:1612H         PUBLIC        _LCD12864_Delay1ms
  C:1736H         PUBLIC        _LCD12864_WriteData
  C:16D0H         PUBLIC        _LCD12864_ShowNumber
  B:00A0H.7       PUBLIC        LCD12864_EN
  C:1858H         PUBLIC        LCD12864_Init
  C:126DH         PUBLIC        _IntToStr2Digit
  C:1716H         PUBLIC        _LCD12864_WriteCmd
  C:16ACH         PUBLIC        LCD12864_Busy
  B:00A0H.6       PUBLIC        LCD12864_RS
  B:00A0H.5       PUBLIC        LCD12864_RW
  C:1393H         PUBLIC        _LCD12864_SetWindow
  C:1774H         PUBLIC        _LCD12864_Show2DigitNumber
  -------         PROC          L?0070
  -------         ENDPROC       L?0070
  -------         PROC          _LCD12864_DELAY1MS
  D:0006H         SYMBOL        c
  -------         DO            
  D:0004H         SYMBOL        a
  D:0005H         SYMBOL        b
  -------         ENDDO         
  C:1612H         LINE#         3
  C:1612H         LINE#         4
  C:1612H         LINE#         6
  C:161BH         LINE#         7
  C:161BH         LINE#         8
  C:1625H         LINE#         9
  C:1625H         LINE#         10
  C:1629H         LINE#         11
  C:162CH         LINE#         12
  C:1633H         LINE#         13
  -------         ENDPROC       _LCD12864_DELAY1MS
  -------         PROC          LCD12864_BUSY
BL51 BANKED LINKER/LOCATER V6.22.2.0                                                  10/17/2025  22:39:09  PAGE 19


  -------         DO            
  D:0003H         SYMBOL        i
  -------         ENDDO         
  C:16ACH         LINE#         15
  C:16ACH         LINE#         16
  C:16ACH         LINE#         17
  C:16AEH         LINE#         19
  C:16B0H         LINE#         20
  C:16B2H         LINE#         22
  C:16B4H         LINE#         23
  C:16BAH         LINE#         25
  C:16BFH         LINE#         26
  C:16BFH         LINE#         27
  C:16C0H         LINE#         28
  C:16C6H         LINE#         29
  C:16C6H         LINE#         30
  C:16C8H         LINE#         31
  C:16CBH         LINE#         32
  C:16CBH         LINE#         33
  C:16CBH         LINE#         35
  C:16CDH         LINE#         37
  C:16CFH         LINE#         38
  -------         ENDPROC       LCD12864_BUSY
  -------         PROC          _LCD12864_WRITECMD
  D:0001H         SYMBOL        cmd
  -------         DO            
  D:0002H         SYMBOL        i
  -------         ENDDO         
  C:1716H         LINE#         40
  C:1718H         LINE#         41
  C:1718H         LINE#         43
  C:171AH         LINE#         44
  C:1720H         LINE#         45
  C:1720H         LINE#         46
  C:1726H         LINE#         47
  C:1727H         LINE#         48
  C:172DH         LINE#         49
  C:172EH         LINE#         51
  C:172EH         LINE#         52
  C:172EH         LINE#         54
  C:1730H         LINE#         55
  C:1730H         LINE#         56
  C:1730H         LINE#         58
  C:1730H         LINE#         60
  C:1730H         LINE#         61
  C:1733H         LINE#         62
  C:1735H         LINE#         63
  -------         ENDPROC       _LCD12864_WRITECMD
  -------         PROC          _LCD12864_WRITEDATA
  D:0001H         SYMBOL        dat
  -------         DO            
  D:0002H         SYMBOL        i
  -------         ENDDO         
  C:1736H         LINE#         65
  C:1738H         LINE#         66
  C:1738H         LINE#         68
  C:173AH         LINE#         69
BL51 BANKED LINKER/LOCATER V6.22.2.0                                                  10/17/2025  22:39:09  PAGE 20


  C:1740H         LINE#         70
  C:1740H         LINE#         71
  C:1746H         LINE#         72
  C:1747H         LINE#         73
  C:174DH         LINE#         74
  C:174EH         LINE#         76
  C:174EH         LINE#         77
  C:174EH         LINE#         79
  C:1750H         LINE#         80
  C:1750H         LINE#         81
  C:1750H         LINE#         83
  C:1750H         LINE#         85
  C:1750H         LINE#         86
  C:1753H         LINE#         87
  C:1755H         LINE#         88
  -------         ENDPROC       _LCD12864_WRITEDATA
  -------         PROC          _INTTOSTR
  D:0064H         SYMBOL        num
  D:0066H         SYMBOL        str
  D:0069H         SYMBOL        digits
  -------         DO            
  D:006BH         SYMBOL        i
  D:006DH         SYMBOL        isNegative
  D:0006H         SYMBOL        start
  D:006FH         SYMBOL        end
  D:0071H         SYMBOL        len
  D:0073H         SYMBOL        temp
  -------         DO            
  D:0075H         SYMBOL        temp_char
  -------         ENDDO         
  -------         ENDDO         
  C:082CH         LINE#         90
  C:0836H         LINE#         91
  C:0836H         LINE#         92
  C:083BH         LINE#         93
  C:083FH         LINE#         95
  C:0843H         LINE#         96
  C:0849H         LINE#         99
  C:0852H         LINE#         100
  C:0852H         LINE#         101
  C:0858H         LINE#         102
  C:0863H         LINE#         103
  C:0868H         LINE#         104
  C:0868H         LINE#         108
  C:0868H         LINE#         109
  C:0870H         LINE#         110
  C:087FH         LINE#         111
  C:0885H         LINE#         114
  C:08A2H         LINE#         115
  C:08A2H         LINE#         116
  C:08C1H         LINE#         117
  C:08C1H         LINE#         118
  C:08D2H         LINE#         119
  C:08DCH         LINE#         120
  C:08DCH         LINE#         123
  C:08E2H         LINE#         124
  C:08E2H         LINE#         125
BL51 BANKED LINKER/LOCATER V6.22.2.0                                                  10/17/2025  22:39:09  PAGE 21


  C:08EFH         LINE#         126
  C:08EFH         LINE#         127
  C:0904H         LINE#         128
  C:0906H         LINE#         130
  C:0906H         LINE#         132
  C:0912H         LINE#         133
  C:0922H         LINE#         134
  C:0922H         LINE#         135
  C:0924H         LINE#         137
  C:0924H         LINE#         138
  C:092AH         LINE#         140
  C:092AH         LINE#         141
  C:0952H         LINE#         142
  C:0961H         LINE#         143
  C:0967H         LINE#         144
  C:0967H         LINE#         147
  C:096DH         LINE#         148
  C:096DH         LINE#         149
  C:0987H         LINE#         150
  C:0987H         LINE#         153
  C:09B5H         LINE#         154
  C:09C1H         LINE#         155
  C:09D0H         LINE#         156
  C:09D0H         LINE#         157
  C:09DFH         LINE#         158
  C:09EFH         LINE#         159
  C:09FAH         LINE#         160
  C:09FFH         LINE#         161
  C:0A07H         LINE#         162
  C:0A09H         LINE#         164
  -------         ENDPROC       _INTTOSTR
  -------         PROC          _INTTOSTR2DIGIT
  D:0053H         SYMBOL        num
  D:0055H         SYMBOL        str
  C:126DH         LINE#         167
  C:1277H         LINE#         168
  C:1277H         LINE#         170
  C:1285H         LINE#         171
  C:1298H         LINE#         174
  C:12AFH         LINE#         175
  C:12C9H         LINE#         176
  -------         ENDPROC       _INTTOSTR2DIGIT
  -------         PROC          LCD12864_INIT
  C:1858H         LINE#         179
  C:1858H         LINE#         180
  C:1858H         LINE#         181
  C:185AH         LINE#         182
  C:185CH         LINE#         184
  C:1861H         LINE#         185
  C:1866H         LINE#         186
  -------         ENDPROC       LCD12864_INIT
  -------         PROC          _LCD12864_SETWINDOW
  D:0007H         SYMBOL        x
  D:0064H         SYMBOL        y
  D:0065H         SYMBOL        word
  -------         DO            
  D:0068H         SYMBOL        pos
BL51 BANKED LINKER/LOCATER V6.22.2.0                                                  10/17/2025  22:39:09  PAGE 22


  D:0069H         SYMBOL        i
  -------         ENDDO         
  C:1393H         LINE#         189
  C:139BH         LINE#         190
  C:139BH         LINE#         192
  C:139EH         LINE#         195
  C:13A9H         LINE#         196
  C:13B4H         LINE#         197
  C:13BFH         LINE#         198
  C:13CAH         LINE#         201
  C:13CFH         LINE#         204
  C:13E8H         LINE#         205
  C:13E8H         LINE#         206
  C:13EBH         LINE#         207
  C:13EDH         LINE#         208
  C:13EFH         LINE#         209
  C:13F1H         LINE#         210
  -------         ENDPROC       _LCD12864_SETWINDOW
  -------         PROC          _LCD12864_SHOWNUMBER
  D:0052H         SYMBOL        x
  D:0053H         SYMBOL        y
  D:0006H         SYMBOL        number
  -------         DO            
  D:0054H         SYMBOL        buffer
  -------         ENDDO         
  C:16D0H         LINE#         212
  C:16D8H         LINE#         213
  C:16D8H         LINE#         215
  C:16E7H         LINE#         216
  -------         ENDPROC       _LCD12864_SHOWNUMBER
  -------         PROC          _LCD12864_SHOW2DIGITNUMBER
  D:004EH         SYMBOL        x
  D:004FH         SYMBOL        y
  D:0006H         SYMBOL        number
  -------         DO            
  D:0050H         SYMBOL        buffer
  -------         ENDDO         
  C:1774H         LINE#         219
  C:177CH         LINE#         220
  C:177CH         LINE#         222
  C:1785H         LINE#         223
  -------         ENDPROC       _LCD12864_SHOW2DIGITNUMBER
  -------         ENDMOD        LCD12864

  -------         MODULE        MATRIXKEY
  C:0000H         SYMBOL        _ICE_DUMMY_
  D:0090H         PUBLIC        P1
  B:0090H.0       PUBLIC        P1_0
  B:0090H.1       PUBLIC        P1_1
  B:0090H.2       PUBLIC        P1_2
  B:0090H.3       PUBLIC        P1_3
  B:0090H.4       PUBLIC        P1_4
  B:0090H.5       PUBLIC        P1_5
  B:0090H.6       PUBLIC        P1_6
  B:0090H.7       PUBLIC        P1_7
  C:0BB9H         PUBLIC        MatrixKey
  -------         PROC          MATRIXKEY
BL51 BANKED LINKER/LOCATER V6.22.2.0                                                  10/17/2025  22:39:09  PAGE 23


  -------         DO            
  D:004EH         SYMBOL        KeyNumber
  -------         ENDDO         
  C:0BB9H         LINE#         10
  C:0BB9H         LINE#         11
  C:0BB9H         LINE#         12
  C:0BBCH         LINE#         14
  C:0BBFH         LINE#         15
  C:0BC1H         LINE#         16
  C:0BD7H         LINE#         17
  C:0BEEH         LINE#         18
  C:0C05H         LINE#         19
  C:0C1CH         LINE#         21
  C:0C1FH         LINE#         22
  C:0C21H         LINE#         23
  C:0C38H         LINE#         24
  C:0C4FH         LINE#         25
  C:0C66H         LINE#         26
  C:0C7DH         LINE#         28
  C:0C80H         LINE#         29
  C:0C82H         LINE#         30
  C:0C99H         LINE#         31
  C:0CB0H         LINE#         32
  C:0CC7H         LINE#         33
  C:0CDEH         LINE#         35
  C:0CE1H         LINE#         36
  C:0CE3H         LINE#         37
  C:0CFAH         LINE#         38
  C:0D11H         LINE#         39
  C:0D28H         LINE#         40
  C:0D3FH         LINE#         42
  C:0D41H         LINE#         43
  -------         ENDPROC       MATRIXKEY
  -------         ENDMOD        MATRIXKEY

  -------         MODULE        DS18B20
  C:0000H         SYMBOL        _ICE_DUMMY_
  C:186BH         PUBLIC        DS18B20_ConvertT
  C:1634H         PUBLIC        DS18B20_ReadT
  -------         PROC          DS18B20_CONVERTT
  C:186BH         LINE#         10
  C:186BH         LINE#         11
  C:186BH         LINE#         12
  C:186EH         LINE#         13
  C:1873H         LINE#         14
  -------         ENDPROC       DS18B20_CONVERTT
  -------         PROC          DS18B20_READT
  -------         DO            
  D:004EH         SYMBOL        TLSB
  D:0007H         SYMBOL        TMSB
  D:0006H         SYMBOL        Temp
  D:0004H         SYMBOL        T
  -------         ENDDO         
  C:1634H         LINE#         18
  C:1634H         LINE#         19
  C:1634H         LINE#         23
  C:1637H         LINE#         24
BL51 BANKED LINKER/LOCATER V6.22.2.0                                                  10/17/2025  22:39:09  PAGE 24


  C:163CH         LINE#         25
  C:1641H         LINE#         26
  C:1646H         LINE#         27
  C:1649H         LINE#         28
  C:164EH         LINE#         29
  -------         ENDPROC       DS18B20_READT
  -------         ENDMOD        DS18B20

  -------         MODULE        ONEWIRE
  C:0000H         SYMBOL        _ICE_DUMMY_
  D:00B0H         PUBLIC        P3
  B:00A8H.7       PUBLIC        EA
  C:17CDH         PUBLIC        OneWire_ReceiveBit
  B:00B0H.7       PUBLIC        OneWire_DQ
  C:1792H         PUBLIC        OneWire_Init
  C:17E9H         PUBLIC        _OneWire_SendByte
  C:1819H         PUBLIC        _OneWire_SendBit
  C:17B0H         PUBLIC        OneWire_ReceiveByte
  -------         PROC          ONEWIRE_INIT
  -------         DO            
  D:0007H         SYMBOL        i
  D:0006H         SYMBOL        AckBit
  -------         ENDDO         
  C:1792H         LINE#         6
  C:1792H         LINE#         7
  C:1792H         LINE#         10
  C:1794H         LINE#         11
  C:1796H         LINE#         12
  C:1798H         LINE#         13
  C:179CH         LINE#         14
  C:179EH         LINE#         15
  C:17A2H         LINE#         16
  C:17A7H         LINE#         17
  C:17ABH         LINE#         18
  C:17ADH         LINE#         19
  C:17AFH         LINE#         20
  -------         ENDPROC       ONEWIRE_INIT
  -------         PROC          _ONEWIRE_SENDBIT
  D:0007H         SYMBOL        Bit
  -------         DO            
  D:0006H         SYMBOL        i
  -------         ENDDO         
  C:1819H         LINE#         27
  C:1819H         LINE#         28
  C:1819H         LINE#         30
  C:181BH         LINE#         31
  C:181DH         LINE#         32
  C:1821H         LINE#         33
  C:1826H         LINE#         34
  C:182AH         LINE#         35
  C:182CH         LINE#         36
  C:182EH         LINE#         37
  -------         ENDPROC       _ONEWIRE_SENDBIT
  -------         PROC          ONEWIRE_RECEIVEBIT
  -------         DO            
  D:0007H         SYMBOL        i
  D:0006H         SYMBOL        Bit
BL51 BANKED LINKER/LOCATER V6.22.2.0                                                  10/17/2025  22:39:09  PAGE 25


  -------         ENDDO         
  C:17CDH         LINE#         44
  C:17CDH         LINE#         45
  C:17CDH         LINE#         48
  C:17CFH         LINE#         49
  C:17D1H         LINE#         50
  C:17D5H         LINE#         51
  C:17D7H         LINE#         52
  C:17DBH         LINE#         53
  C:17E0H         LINE#         54
  C:17E4H         LINE#         55
  C:17E6H         LINE#         56
  C:17E8H         LINE#         57
  -------         ENDPROC       ONEWIRE_RECEIVEBIT
  -------         PROC          _ONEWIRE_SENDBYTE
  D:0005H         SYMBOL        Byte
  -------         DO            
  D:0004H         SYMBOL        i
  -------         ENDDO         
  C:17E9H         LINE#         64
  C:17EBH         LINE#         65
  C:17EBH         LINE#         67
  C:17EDH         LINE#         68
  C:17EDH         LINE#         69
  C:17FDH         LINE#         70
  C:1801H         LINE#         71
  -------         ENDPROC       _ONEWIRE_SENDBYTE
  -------         PROC          ONEWIRE_RECEIVEBYTE
  -------         DO            
  D:0004H         SYMBOL        i
  D:0005H         SYMBOL        Byte
  -------         ENDDO         
  C:17B0H         LINE#         78
  C:17B0H         LINE#         79
  C:17B0H         LINE#         81
  C:17B2H         LINE#         82
  C:17B3H         LINE#         83
  C:17B3H         LINE#         84
  C:17C6H         LINE#         85
  C:17CAH         LINE#         86
  C:17CCH         LINE#         87
  -------         ENDPROC       ONEWIRE_RECEIVEBYTE
  -------         ENDMOD        ONEWIRE

  -------         MODULE        KEY
  C:0000H         SYMBOL        _ICE_DUMMY_
  B:00B0H.0       PUBLIC        P3_0
  B:00B0H.1       PUBLIC        P3_1
  B:00B0H.2       PUBLIC        P3_2
  B:00B0H.3       PUBLIC        P3_3
  C:1332H         PUBLIC        Key
  -------         PROC          KEY
  -------         DO            
  D:0014H         SYMBOL        KeyNumber
  -------         ENDDO         
  C:1332H         LINE#         9
  C:1332H         LINE#         10
BL51 BANKED LINKER/LOCATER V6.22.2.0                                                  10/17/2025  22:39:09  PAGE 26


  C:1332H         LINE#         11
  C:1335H         LINE#         13
  C:134BH         LINE#         14
  C:1362H         LINE#         15
  C:1379H         LINE#         16
  C:1390H         LINE#         18
  C:1392H         LINE#         19
  -------         ENDPROC       KEY
  -------         ENDMOD        KEY

  -------         MODULE        DELAY
  C:0000H         SYMBOL        _ICE_DUMMY_
  C:182FH         PUBLIC        _Delay
  -------         PROC          _DELAY
  D:0006H         SYMBOL        xms
  -------         DO            
  D:0005H         SYMBOL        i
  D:0004H         SYMBOL        j
  -------         ENDDO         
  C:182FH         LINE#         2
  C:182FH         LINE#         3
  C:182FH         LINE#         5
  C:1839H         LINE#         6
  C:1839H         LINE#         7
  C:183BH         LINE#         8
  C:183DH         LINE#         10
  C:183DH         LINE#         11
  C:183FH         LINE#         12
  C:1841H         LINE#         13
  C:1843H         LINE#         14
  -------         ENDPROC       _DELAY
  -------         ENDMOD        DELAY

  -------         MODULE        BUZZER
  C:0000H         SYMBOL        _ICE_DUMMY_
  D:0090H         PUBLIC        P1
  B:0090H.5       PUBLIC        Buzzer
  C:1897H         PUBLIC        Buzzer_Delay500us
  C:16F4H         PUBLIC        _Buzzer_Time
  -------         PROC          BUZZER_DELAY500US
  -------         DO            
  D:0007H         SYMBOL        i
  -------         ENDDO         
  C:1897H         LINE#         12
  C:1897H         LINE#         13
  C:1897H         LINE#         16
  C:1898H         LINE#         17
  C:189AH         LINE#         18
  C:189CH         LINE#         19
  -------         ENDPROC       BUZZER_DELAY500US
  -------         PROC          _BUZZER_TIME
  D:0004H         SYMBOL        ms
  -------         DO            
  D:0002H         SYMBOL        i
  -------         ENDDO         
  C:16F4H         LINE#         26
  C:16F8H         LINE#         27
BL51 BANKED LINKER/LOCATER V6.22.2.0                                                  10/17/2025  22:39:09  PAGE 27


  C:16F8H         LINE#         29
  C:1709H         LINE#         30
  C:1709H         LINE#         31
  C:170BH         LINE#         32
  C:170EH         LINE#         33
  C:1715H         LINE#         34
  -------         ENDPROC       _BUZZER_TIME
  -------         ENDMOD        BUZZER

  -------         MODULE        ?C?FPDIV
  C:02DFH         PUBLIC        ?C?FPDIV
  -------         ENDMOD        ?C?FPDIV

  -------         MODULE        ?C?FCAST
  C:0386H         PUBLIC        ?C?FCASTC
  C:0381H         PUBLIC        ?C?FCASTI
  C:037CH         PUBLIC        ?C?FCASTL
  -------         ENDMOD        ?C?FCAST

  -------         MODULE        ?C?CASTF
  C:03BAH         PUBLIC        ?C?CASTF
  -------         ENDMOD        ?C?CASTF

  -------         MODULE        ?C?SCDIV
  C:043BH         PUBLIC        ?C?SCDIV
  -------         ENDMOD        ?C?SCDIV

  -------         MODULE        ?C?CLDOPTR
  C:045DH         PUBLIC        ?C?CLDOPTR
  -------         ENDMOD        ?C?CLDOPTR

  -------         MODULE        ?C?CSTPTR
  C:048AH         PUBLIC        ?C?CSTPTR
  -------         ENDMOD        ?C?CSTPTR

  -------         MODULE        ?C?CSTOPTR
  C:049CH         PUBLIC        ?C?CSTOPTR
  -------         ENDMOD        ?C?CSTOPTR

  -------         MODULE        ?C?IMUL
  C:04BEH         PUBLIC        ?C?IMUL
  -------         ENDMOD        ?C?IMUL

  -------         MODULE        ?C?UIDIV
  C:04D0H         PUBLIC        ?C?UIDIV
  -------         ENDMOD        ?C?UIDIV

  -------         MODULE        ?C?SIDIV
  C:0525H         PUBLIC        ?C?SIDIV
  -------         ENDMOD        ?C?SIDIV

  -------         MODULE        ?C?LNEG
  C:055BH         PUBLIC        ?C?LNEG
  -------         ENDMOD        ?C?LNEG

  -------         MODULE        ?C?ULSHR
  C:0569H         PUBLIC        ?C?ULSHR
BL51 BANKED LINKER/LOCATER V6.22.2.0                                                  10/17/2025  22:39:09  PAGE 28


  -------         ENDMOD        ?C?ULSHR

  -------         MODULE        ?C?LLDCODE
  C:057CH         PUBLIC        ?C?LLDCODE
  -------         ENDMOD        ?C?LLDCODE

Program Size: data=107.1 xdata=0 code=6305
LINK/LOCATE RUN COMPLETE.  0 WARNING(S),  0 ERROR(S)
